target datalayout = "e-m:e-p270:32:32-p271:32:32-p272:64:64-i64:64-i128:128-f80:128-n8:16:32:64-S128"
target triple = "x86_64-pc-linux-gnu"

%struct.CXzStream = type { i16, i64, i64, ptr, i64 }
%struct.CXzs = type { i64, i64, ptr }

; Function Attrs: nounwind uwtable
define i64 @Xzs_GetNumBlocks(ptr noundef %0) #0 {
  %2 = alloca ptr, align 8
  %3 = alloca i64, align 8
  %4 = alloca i64, align 8
  store ptr %0, ptr %2, align 8
  store i64 0, ptr %3, align 8
  store i64 0, ptr %4, align 8
  br label %5

5:                                                ; preds = %21, %1
  %6 = load i64, ptr %4, align 8
  %7 = load ptr, ptr %2, align 8
  %8 = getelementptr inbounds %struct.CXzs, ptr %7, i32 0, i32 0
  %9 = load i64, ptr %8, align 8
  %10 = icmp ult i64 %6, %9
  br i1 %10, label %11, label %24

11:                                               ; preds = %5
  %12 = load ptr, ptr %2, align 8
  %13 = getelementptr inbounds %struct.CXzs, ptr %12, i32 0, i32 2
  %14 = load ptr, ptr %13, align 8
  %15 = load i64, ptr %4, align 8
  %16 = getelementptr inbounds %struct.CXzStream, ptr %14, i64 %15
  %17 = getelementptr inbounds %struct.CXzStream, ptr %16, i32 0, i32 1
  %18 = load i64, ptr %17, align 8
  %19 = load i64, ptr %3, align 8
  %20 = add i64 %19, %18
  store i64 %20, ptr %3, align 8
  br label %21

21:                                               ; preds = %11
  %22 = load i64, ptr %4, align 8
  %23 = add i64 %22, 1
  store i64 %23, ptr %4, align 8
  br label %5

24:                                               ; preds = %5
  %25 = load i64, ptr %3, align 8
  ret i64 %25
}