; Function Attrs: nofree norecurse nosync nounwind memory(read, inaccessiblemem: none) uwtable
define i64 @Xzs_GetNumBlocks(ptr noundef readonly captures(none) %0) local_unnamed_addr #2 {
  %2 = load i64, ptr %0, align 8
  %.not = icmp eq i64 %2, 0
  br i1 %.not, label %._crit_edge, label %.lr.ph

.lr.ph:                                           ; preds = %1
  %3 = getelementptr inbounds nuw i8, ptr %0, i64 16
  %4 = load ptr, ptr %3, align 8
  br label %5

5:                                                ; preds = %.lr.ph, %5
  %.08 = phi i64 [ 0, %.lr.ph ], [ %9, %5 ]
  %.067 = phi i64 [ 0, %.lr.ph ], [ %8, %5 ]
  %6 = getelementptr inbounds %struct.CXzStream, ptr %4, i64 %.08, i32 1
  %7 = load i64, ptr %6, align 8
  %8 = add i64 %7, %.067
  %9 = add nuw i64 %.08, 1
  %exitcond.not = icmp eq i64 %9, %2
  br i1 %exitcond.not, label %._crit_edge, label %5

._crit_edge:                                      ; preds = %5, %1
  %.06.lcssa = phi i64 [ 0, %1 ], [ %8, %5 ]
  ret i64 %.06.lcssa
}